target datalayout = "e-m:e-p270:32:32-p271:32:32-p272:64:64-i64:64-i128:128-f80:128-n8:16:32:64-S128"
target triple = "x86_64-pc-linux-gnu"

%struct.pfcp_msg_hash_entry = type { i8, i32, %struct.nstime_t, i32, i32, i32 }
%struct.nstime_t = type { i64, i32 }

@pref_pair_matching_max_interval_ms = internal global i32 0, align 4

; Function Attrs: null_pointer_is_valid sspstrong uwtable
define internal i32 @pfcp_sn_equal_unmatched(ptr noundef %0, ptr noundef %1) #0 {
  %3 = alloca i32, align 4
  %4 = alloca ptr, align 8
  %5 = alloca ptr, align 8
  %6 = alloca ptr, align 8
  %7 = alloca ptr, align 8
  %8 = alloca %struct.nstime_t, align 8
  %9 = alloca double, align 8
  %10 = alloca i32, align 4
  store ptr %0, ptr %4, align 8
  store ptr %1, ptr %5, align 8
  call void @llvm.lifetime.start.p0(i64 8, ptr %6) #13
  %11 = load ptr, ptr %4, align 8
  store ptr %11, ptr %6, align 8
  call void @llvm.lifetime.start.p0(i64 8, ptr %7) #13
  %12 = load ptr, ptr %5, align 8
  store ptr %12, ptr %7, align 8
  %13 = load ptr, ptr %6, align 8
  %14 = getelementptr inbounds nuw %struct.pfcp_msg_hash_entry, ptr %13, i32 0, i32 4
  %15 = load i32, ptr %14, align 4
  %16 = load ptr, ptr %7, align 8
  %17 = getelementptr inbounds nuw %struct.pfcp_msg_hash_entry, ptr %16, i32 0, i32 4
  %18 = load i32, ptr %17, align 4
  %19 = icmp eq i32 %15, %18
  br i1 %19, label %20, label %36

20:                                               ; preds = %2
  %21 = load i32, ptr @pref_pair_matching_max_interval_ms, align 4
  %22 = icmp ne i32 %21, 0
  br i1 %22, label %23, label %35

23:                                               ; preds = %20
  call void @llvm.lifetime.start.p0(i64 16, ptr %8) #13
  %24 = load ptr, ptr %6, align 8
  %25 = getelementptr inbounds nuw %struct.pfcp_msg_hash_entry, ptr %24, i32 0, i32 2
  %26 = load ptr, ptr %7, align 8
  %27 = getelementptr inbounds nuw %struct.pfcp_msg_hash_entry, ptr %26, i32 0, i32 2
  call void @nstime_delta(ptr noundef %8, ptr noundef %25, ptr noundef %27)
  call void @llvm.lifetime.start.p0(i64 8, ptr %9) #13
  %28 = call double @nstime_to_msec(ptr noundef %8)
  %29 = call double @llvm.fabs.f64(double %28)
  store double %29, ptr %9, align 8
  %30 = load double, ptr %9, align 8
  %31 = load i32, ptr @pref_pair_matching_max_interval_ms, align 4
  %32 = uitofp i32 %31 to double
  %33 = fcmp olt double %30, %32
  %34 = zext i1 %33 to i32
  store i32 %34, ptr %3, align 4
  store i32 1, ptr %10, align 4
  call void @llvm.lifetime.end.p0(i64 8, ptr %9) #13
  call void @llvm.lifetime.end.p0(i64 16, ptr %8) #13
  br label %37

35:                                               ; preds = %20
  store i32 1, ptr %3, align 4
  store i32 1, ptr %10, align 4
  br label %37

36:                                               ; preds = %2
  store i32 0, ptr %3, align 4
  store i32 1, ptr %10, align 4
  br label %37

37:                                               ; preds = %36, %35, %23
  call void @llvm.lifetime.end.p0(i64 8, ptr %7) #13
  call void @llvm.lifetime.end.p0(i64 8, ptr %6) #13
  %38 = load i32, ptr %3, align 4
  ret i32 %38
}