; Function Attrs: null_pointer_is_valid sspstrong uwtable
define internal range(i32 0, 2) i32 @pfcp_sn_equal_unmatched(ptr noundef %0, ptr noundef %1) #0 {
  %3 = alloca %struct.nstime_t, align 8
  %4 = getelementptr inbounds nuw i8, ptr %0, i64 28
  %5 = load i32, ptr %4, align 4
  %6 = getelementptr inbounds nuw i8, ptr %1, i64 28
  %7 = load i32, ptr %6, align 4
  %8 = icmp eq i32 %5, %7
  br i1 %8, label %9, label %20

9:                                                ; preds = %2
  %10 = load i32, ptr @pref_pair_matching_max_interval_ms, align 4
  %.not = icmp eq i32 %10, 0
  br i1 %.not, label %20, label %11

11:                                               ; preds = %9
  call void @llvm.lifetime.start.p0(i64 16, ptr nonnull %3) #15
  %12 = getelementptr inbounds nuw i8, ptr %0, i64 8
  %13 = getelementptr inbounds nuw i8, ptr %1, i64 8
  call void @nstime_delta(ptr noundef nonnull %3, ptr noundef nonnull %12, ptr noundef nonnull %13)
  %14 = call double @nstime_to_msec(ptr noundef nonnull %3)
  %15 = call double @llvm.fabs.f64(double %14)
  %16 = load i32, ptr @pref_pair_matching_max_interval_ms, align 4
  %17 = uitofp i32 %16 to double
  %18 = fcmp olt double %15, %17
  %19 = zext i1 %18 to i32
  call void @llvm.lifetime.end.p0(i64 16, ptr nonnull %3) #15
  br label %20

20:                                               ; preds = %2, %9, %11
  %.0 = phi i32 [ %19, %11 ], [ 1, %9 ], [ 0, %2 ]
  ret i32 %.0
}